target datalayout = "e-m:e-p270:32:32-p271:32:32-p272:64:64-i64:64-i128:128-f80:128-n8:16:32:64-S128"
target triple = "x86_64-pc-linux-gnu"

%struct.asn1_string_st = type { i32, i32, ptr, i64 }
%struct.X509_name_entry_st = type { ptr, ptr, i32, i32 }

; Function Attrs: nounwind uwtable
define hidden i32 @X509_NAME_ENTRY_set_data(ptr noundef %0, i32 noundef %1, ptr noundef %2, i32 noundef %3) #0 {
  %5 = alloca i32, align 4
  %6 = alloca ptr, align 8
  %7 = alloca i32, align 4
  %8 = alloca ptr, align 8
  %9 = alloca i32, align 4
  %10 = alloca i32, align 4
  %11 = alloca i32, align 4
  store ptr %0, ptr %6, align 8, !tbaa !29
  store i32 %1, ptr %7, align 4, !tbaa !11
  store ptr %2, ptr %8, align 8, !tbaa !13
  store i32 %3, ptr %9, align 4, !tbaa !11
  call void @llvm.lifetime.start.p0(i64 4, ptr %10) #5
  %12 = load ptr, ptr %6, align 8, !tbaa !29
  %13 = icmp eq ptr %12, null
  br i1 %13, label %20, label %14

14:                                               ; preds = %4
  %15 = load ptr, ptr %8, align 8, !tbaa !13
  %16 = icmp eq ptr %15, null
  br i1 %16, label %17, label %21

17:                                               ; preds = %14
  %18 = load i32, ptr %9, align 4, !tbaa !11
  %19 = icmp ne i32 %18, 0
  br i1 %19, label %20, label %21

20:                                               ; preds = %17, %4
  store i32 0, ptr %5, align 4
  store i32 1, ptr %11, align 4
  br label %80

21:                                               ; preds = %17, %14
  %22 = load i32, ptr %7, align 4, !tbaa !11
  %23 = icmp sgt i32 %22, 0
  br i1 %23, label %24, label %41

24:                                               ; preds = %21
  %25 = load i32, ptr %7, align 4, !tbaa !11
  %26 = and i32 %25, 4096
  %27 = icmp ne i32 %26, 0
  br i1 %27, label %28, label %41

28:                                               ; preds = %24
  %29 = load ptr, ptr %6, align 8, !tbaa !29
  %30 = getelementptr inbounds nuw %struct.X509_name_entry_st, ptr %29, i32 0, i32 1
  %31 = load ptr, ptr %8, align 8, !tbaa !13
  %32 = load i32, ptr %9, align 4, !tbaa !11
  %33 = load i32, ptr %7, align 4, !tbaa !11
  %34 = load ptr, ptr %6, align 8, !tbaa !29
  %35 = getelementptr inbounds nuw %struct.X509_name_entry_st, ptr %34, i32 0, i32 0
  %36 = load ptr, ptr %35, align 8, !tbaa !31
  %37 = call i32 @OBJ_obj2nid(ptr noundef %36)
  %38 = call ptr @ASN1_STRING_set_by_NID(ptr noundef %30, ptr noundef %31, i32 noundef %32, i32 noundef %33, i32 noundef %37)
  %39 = icmp ne ptr %38, null
  %40 = select i1 %39, i32 1, i32 0
  store i32 %40, ptr %5, align 4
  store i32 1, ptr %11, align 4
  br label %80

41:                                               ; preds = %24, %21
  %42 = load i32, ptr %9, align 4, !tbaa !11
  %43 = icmp slt i32 %42, 0
  br i1 %43, label %44, label %48

44:                                               ; preds = %41
  %45 = load ptr, ptr %8, align 8, !tbaa !13
  %46 = call i64 @strlen(ptr noundef %45) #6
  %47 = trunc i64 %46 to i32
  store i32 %47, ptr %9, align 4, !tbaa !11
  br label %48

48:                                               ; preds = %44, %41
  %49 = load ptr, ptr %6, align 8, !tbaa !29
  %50 = getelementptr inbounds nuw %struct.X509_name_entry_st, ptr %49, i32 0, i32 1
  %51 = load ptr, ptr %50, align 8, !tbaa !35
  %52 = load ptr, ptr %8, align 8, !tbaa !13
  %53 = load i32, ptr %9, align 4, !tbaa !11
  %54 = call i32 @ASN1_STRING_set(ptr noundef %51, ptr noundef %52, i32 noundef %53)
  store i32 %54, ptr %10, align 4, !tbaa !11
  %55 = load i32, ptr %10, align 4, !tbaa !11
  %56 = icmp ne i32 %55, 0
  br i1 %56, label %58, label %57

57:                                               ; preds = %48
  store i32 0, ptr %5, align 4
  store i32 1, ptr %11, align 4
  br label %80

58:                                               ; preds = %48
  %59 = load i32, ptr %7, align 4, !tbaa !11
  %60 = icmp ne i32 %59, -1
  br i1 %60, label %61, label %79

61:                                               ; preds = %58
  %62 = load i32, ptr %7, align 4, !tbaa !11
  %63 = icmp eq i32 %62, -2
  br i1 %63, label %64, label %72

64:                                               ; preds = %61
  %65 = load ptr, ptr %8, align 8, !tbaa !13
  %66 = load i32, ptr %9, align 4, !tbaa !11
  %67 = call i32 @ASN1_PRINTABLE_type(ptr noundef %65, i32 noundef %66)
  %68 = load ptr, ptr %6, align 8, !tbaa !29
  %69 = getelementptr inbounds nuw %struct.X509_name_entry_st, ptr %68, i32 0, i32 1
  %70 = load ptr, ptr %69, align 8, !tbaa !35
  %71 = getelementptr inbounds nuw %struct.asn1_string_st, ptr %70, i32 0, i32 1
  store i32 %67, ptr %71, align 4, !tbaa !42
  br label %78

72:                                               ; preds = %61
  %73 = load i32, ptr %7, align 4, !tbaa !11
  %74 = load ptr, ptr %6, align 8, !tbaa !29
  %75 = getelementptr inbounds nuw %struct.X509_name_entry_st, ptr %74, i32 0, i32 1
  %76 = load ptr, ptr %75, align 8, !tbaa !35
  %77 = getelementptr inbounds nuw %struct.asn1_string_st, ptr %76, i32 0, i32 1
  store i32 %73, ptr %77, align 4, !tbaa !42
  br label %78

78:                                               ; preds = %72, %64
  br label %79

79:                                               ; preds = %78, %58
  store i32 1, ptr %5, align 4
  store i32 1, ptr %11, align 4
  br label %80

80:                                               ; preds = %79, %57, %28, %20
  call void @llvm.lifetime.end.p0(i64 4, ptr %10) #5
  %81 = load i32, ptr %5, align 4
  ret i32 %81
}